; Function Attrs: mustprogress uwtable
define dso_local void @_ZN4Luau17DifferEnvironment17recordProvenEqualEPKNS_4TypeES3_(ptr noundef nonnull align 8 dereferenceable(312) %0, ptr noundef %1, ptr noundef %2) local_unnamed_addr #1 align 2 {
  %4 = alloca %"struct.std::__detail::_AllocNode.216", align 8
  %5 = alloca %"struct.std::__detail::_AllocNode.216", align 8
  %6 = alloca %"struct.std::pair", align 8
  %7 = alloca %"struct.std::pair", align 8
  %8 = getelementptr inbounds i8, ptr %0, i64 176
  store ptr %1, ptr %6, align 8
  %9 = getelementptr inbounds i8, ptr %6, i64 8
  store ptr %2, ptr %9, align 8
  call void @llvm.lifetime.start.p0(i64 8, ptr nonnull %5)
  store ptr %8, ptr %5, align 8
  %10 = call { ptr, i8 } @_ZNSt10_HashtableISt4pairIPKN4Luau4TypeES4_ES5_SaIS5_ENSt8__detail9_IdentityESt8equal_toIS5_ENS1_14TypeIdPairHashENS7_18_Mod_range_hashingENS7_20_Default_ranged_hashENS7_20_Prime_rehash_policyENS7_17_Hashtable_traitsILb1ELb1ELb1EEEE16_M_insert_uniqueIS5_S5_NS7_10_AllocNodeISaINS7_10_Hash_nodeIS5_Lb1EEEEEEEES0_INS7_14_Node_iteratorIS5_Lb1ELb1EEEbEOT_OT0_RKT1_(ptr noundef nonnull align 8 dereferenceable(56) %8, ptr noundef nonnull align 8 dereferenceable(16) %6, ptr noundef nonnull align 8 dereferenceable(16) %6, ptr noundef nonnull align 8 dereferenceable(8) %5)
  call void @llvm.lifetime.end.p0(i64 8, ptr nonnull %5)
  store ptr %2, ptr %7, align 8
  %11 = getelementptr inbounds i8, ptr %7, i64 8
  store ptr %1, ptr %11, align 8
  call void @llvm.lifetime.start.p0(i64 8, ptr nonnull %4)
  store ptr %8, ptr %4, align 8
  %12 = call { ptr, i8 } @_ZNSt10_HashtableISt4pairIPKN4Luau4TypeES4_ES5_SaIS5_ENSt8__detail9_IdentityESt8equal_toIS5_ENS1_14TypeIdPairHashENS7_18_Mod_range_hashingENS7_20_Default_ranged_hashENS7_20_Prime_rehash_policyENS7_17_Hashtable_traitsILb1ELb1ELb1EEEE16_M_insert_uniqueIS5_S5_NS7_10_AllocNodeISaINS7_10_Hash_nodeIS5_Lb1EEEEEEEES0_INS7_14_Node_iteratorIS5_Lb1ELb1EEEbEOT_OT0_RKT1_(ptr noundef nonnull align 8 dereferenceable(56) %8, ptr noundef nonnull align 8 dereferenceable(16) %7, ptr noundef nonnull align 8 dereferenceable(16) %7, ptr noundef nonnull align 8 dereferenceable(8) %4)
  call void @llvm.lifetime.end.p0(i64 8, ptr nonnull %4)
  ret void
}